; Function Attrs: mustprogress nofree nounwind willreturn uwtable
define hidden range(i32 -153, 1) i32 @psa_parse_key_data_from_storage(ptr noundef readonly captures(none) %0, i64 noundef %1, ptr noundef writeonly captures(none) %2, ptr noundef writeonly captures(none) %3, ptr noundef writeonly captures(none) %4) local_unnamed_addr #5 {
  %6 = icmp ult i64 %1, 36
  br i1 %6, label %36, label %7

7:                                                ; preds = %5
  %bcmp.i = tail call i32 @bcmp(ptr noundef nonnull readonly dereferenceable(8) %0, ptr noundef nonnull dereferenceable(8) @.str, i64 8)
  %.not.i = icmp eq i32 %bcmp.i, 0
  br i1 %.not.i, label %8, label %36

8:                                                ; preds = %7
  %9 = getelementptr inbounds nuw i8, ptr %0, i64 8
  %.0.copyload.i = load i32, ptr %9, align 1
  %.not36 = icmp eq i32 %.0.copyload.i, 0
  br i1 %.not36, label %10, label %36

10:                                               ; preds = %8
  %11 = getelementptr inbounds nuw i8, ptr %0, i64 32
  %.0.copyload.i37 = load i32, ptr %11, align 1
  %12 = zext i32 %.0.copyload.i37 to i64
  store i64 %12, ptr %3, align 8, !tbaa !15
  %13 = add i64 %1, -36
  %14 = icmp ult i64 %13, %12
  %15 = icmp ugt i32 %.0.copyload.i37, 8191
  %or.cond = or i1 %15, %14
  br i1 %or.cond, label %36, label %16

16:                                               ; preds = %10
  %17 = icmp eq i32 %.0.copyload.i37, 0
  br i1 %17, label %18, label %19

18:                                               ; preds = %16
  store ptr null, ptr %2, align 8, !tbaa !17
  br label %24

19:                                               ; preds = %16
  %20 = tail call noalias ptr @calloc(i64 noundef 1, i64 noundef %12) #9
  store ptr %20, ptr %2, align 8, !tbaa !17
  %21 = icmp eq ptr %20, null
  br i1 %21, label %36, label %22

22:                                               ; preds = %19
  %23 = getelementptr inbounds nuw i8, ptr %0, i64 36
  tail call void @llvm.memcpy.p0.p0.i64(ptr nonnull align 1 %20, ptr nonnull align 1 %23, i64 %12, i1 false)
  br label %24

24:                                               ; preds = %22, %18
  %25 = getelementptr inbounds nuw i8, ptr %0, i64 12
  %.0.copyload.i38 = load i32, ptr %25, align 1
  %26 = getelementptr inbounds nuw i8, ptr %4, i64 4
  store i32 %.0.copyload.i38, ptr %26, align 4, !tbaa !3
  %27 = getelementptr inbounds nuw i8, ptr %0, i64 16
  %.0.copyload.i42 = load i16, ptr %27, align 1
  store i16 %.0.copyload.i42, ptr %4, align 4, !tbaa !10
  %28 = getelementptr inbounds nuw i8, ptr %0, i64 18
  %.0.copyload.i43 = load i16, ptr %28, align 1
  %29 = getelementptr inbounds nuw i8, ptr %4, i64 2
  store i16 %.0.copyload.i43, ptr %29, align 2, !tbaa !11
  %30 = getelementptr inbounds nuw i8, ptr %0, i64 20
  %.0.copyload.i39 = load i32, ptr %30, align 1
  %31 = getelementptr inbounds nuw i8, ptr %4, i64 8
  store i32 %.0.copyload.i39, ptr %31, align 4, !tbaa !12
  %32 = getelementptr inbounds nuw i8, ptr %0, i64 24
  %.0.copyload.i40 = load i32, ptr %32, align 1
  %33 = getelementptr inbounds nuw i8, ptr %4, i64 12
  store i32 %.0.copyload.i40, ptr %33, align 4, !tbaa !13
  %34 = getelementptr inbounds nuw i8, ptr %0, i64 28
  %.0.copyload.i41 = load i32, ptr %34, align 1
  %35 = getelementptr inbounds nuw i8, ptr %4, i64 16
  store i32 %.0.copyload.i41, ptr %35, align 4, !tbaa !14
  br label %36

36:                                               ; preds = %19, %10, %8, %7, %5, %24
  %.0 = phi i32 [ 0, %24 ], [ -153, %5 ], [ -153, %7 ], [ -153, %8 ], [ -153, %10 ], [ -141, %19 ]
  ret i32 %.0
}